; ModuleID = 'source-C-CXX/52/437.c'
source_filename = "source-C-CXX/52/437.c"
target datalayout = "e-m:e-p270:32:32-p271:32:32-p272:64:64-i64:64-f80:128-n8:16:32:64-S128"
target triple = "x86_64-pc-linux-gnu"

@.str = private unnamed_addr constant [3 x i8] c"%d\00", align 1
@.str.1 = private unnamed_addr constant [4 x i8] c",%d\00", align 1

; Function Attrs: nofree nounwind sspstrong uwtable
define dso_local void @main() local_unnamed_addr #0 {
  %1 = alloca i32, align 4
  %2 = alloca [300 x i32], align 16
  %3 = bitcast i32* %1 to i8*
  call void @llvm.lifetime.start.p0i8(i64 4, i8* nonnull %3) #3
  %4 = bitcast [300 x i32]* %2 to i8*
  call void @llvm.lifetime.start.p0i8(i64 1200, i8* nonnull %4) #3
  %5 = call i32 (i8*, ...) @__isoc99_scanf(i8* getelementptr inbounds ([3 x i8], [3 x i8]* @.str, i64 0, i64 0), i32* nonnull %1)
  %6 = load i32, i32* %1, align 4, !tbaa !5
  %7 = icmp sgt i32 %6, 0
  br i1 %7, label %8, label %19

8:                                                ; preds = %0, %8
  %9 = phi i64 [ %12, %8 ], [ 0, %0 ]
  %10 = getelementptr inbounds [300 x i32], [300 x i32]* %2, i64 0, i64 %9
  %11 = call i32 (i8*, ...) @__isoc99_scanf(i8* getelementptr inbounds ([3 x i8], [3 x i8]* @.str, i64 0, i64 0), i32* nonnull %10)
  %12 = add nuw nsw i64 %9, 1
  %13 = load i32, i32* %1, align 4, !tbaa !5
  %14 = sext i32 %13 to i64
  %15 = icmp slt i64 %12, %14
  br i1 %15, label %8, label %16, !llvm.loop !9

16:                                               ; preds = %8
  %17 = getelementptr inbounds [300 x i32], [300 x i32]* %2, i64 0, i64 0
  %18 = load i32, i32* %17, align 16, !tbaa !5
  br label %19

19:                                               ; preds = %16, %0
  %20 = phi i32 [ %18, %16 ], [ undef, %0 ]
  %21 = call i32 (i8*, ...) @printf(i8* nonnull dereferenceable(1) getelementptr inbounds ([3 x i8], [3 x i8]* @.str, i64 0, i64 0), i32 %20)
  %22 = load i32, i32* %1, align 4, !tbaa !5
  %23 = icmp sgt i32 %22, 1
  br i1 %23, label %24, label %51

24:                                               ; preds = %19, %45
  %25 = phi i32 [ %46, %45 ], [ %22, %19 ]
  %26 = phi i64 [ %47, %45 ], [ 1, %19 ]
  %27 = phi i64 [ %50, %45 ], [ 2, %19 ]
  %28 = getelementptr inbounds [300 x i32], [300 x i32]* %2, i64 0, i64 %26
  %29 = load i32, i32* %28, align 4, !tbaa !5
  br label %30

30:                                               ; preds = %24, %35
  %31 = phi i64 [ 0, %24 ], [ %36, %35 ]
  %32 = getelementptr inbounds [300 x i32], [300 x i32]* %2, i64 0, i64 %31
  %33 = load i32, i32* %32, align 4, !tbaa !5
  %34 = icmp eq i32 %29, %33
  br i1 %34, label %38, label %35

35:                                               ; preds = %30
  %36 = add nuw nsw i64 %31, 1
  %37 = icmp eq i64 %36, %27
  br i1 %37, label %38, label %30, !llvm.loop !11

38:                                               ; preds = %30, %35
  %39 = phi i64 [ %31, %30 ], [ %27, %35 ]
  %40 = and i64 %39, 4294967295
  %41 = icmp eq i64 %40, %26
  br i1 %41, label %42, label %45

42:                                               ; preds = %38
  %43 = call i32 (i8*, ...) @printf(i8* nonnull dereferenceable(1) getelementptr inbounds ([4 x i8], [4 x i8]* @.str.1, i64 0, i64 0), i32 %29)
  %44 = load i32, i32* %1, align 4, !tbaa !5
  br label %45

45:                                               ; preds = %38, %42
  %46 = phi i32 [ %25, %38 ], [ %44, %42 ]
  %47 = add nuw nsw i64 %26, 1
  %48 = sext i32 %46 to i64
  %49 = icmp slt i64 %47, %48
  %50 = add nuw nsw i64 %27, 1
  br i1 %49, label %24, label %51, !llvm.loop !12

51:                                               ; preds = %45, %19
  call void @llvm.lifetime.end.p0i8(i64 1200, i8* nonnull %4) #3
  call void @llvm.lifetime.end.p0i8(i64 4, i8* nonnull %3) #3
  ret void
}

; Function Attrs: argmemonly mustprogress nofree nosync nounwind willreturn
declare void @llvm.lifetime.start.p0i8(i64 immarg, i8* nocapture) #1

; Function Attrs: nofree nounwind
declare noundef i32 @__isoc99_scanf(i8* nocapture noundef readonly, ...) local_unnamed_addr #2

; Function Attrs: nofree nounwind
declare noundef i32 @printf(i8* nocapture noundef readonly, ...) local_unnamed_addr #2

; Function Attrs: argmemonly mustprogress nofree nosync nounwind willreturn
declare void @llvm.lifetime.end.p0i8(i64 immarg, i8* nocapture) #1


!llvm.module.flags = !{!0, !1, !2, !3}
!llvm.ident = !{!4}

!0 = !{i32 1, !"wchar_size", i32 4}
!1 = !{i32 7, !"PIC Level", i32 2}
!2 = !{i32 7, !"PIE Level", i32 2}
!3 = !{i32 7, !"uwtable", i32 1}
!4 = !{!"clang version 13.0.0"}
!5 = !{!6, !6, i64 0}
!6 = !{!"int", !7, i64 0}
!7 = !{!"omnipotent char", !8, i64 0}
!8 = !{!"Simple C/C++ TBAA"}
!9 = distinct !{!9, !10}
!10 = !{!"llvm.loop.mustprogress"}
!11 = distinct !{!11, !10}
!12 = distinct !{!12, !10}
